; Function Attrs: mustprogress nounwind uwtable
define internal noundef ptr @_ZN12_GLOBAL__N_117AArch64AsmPrinter13lowerConstantEPKN4llvm8ConstantE(ptr noundef nonnull align 8 dereferenceable(1040) %0, ptr noundef %1) unnamed_addr #0 align 2 {
  %3 = load i8, ptr %1, align 8
  %switch.selectcmp.i.i.i.i.i.i.i.i = icmp ugt i8 %3, 3
  br i1 %switch.selectcmp.i.i.i.i.i.i.i.i, label %10, label %4

4:                                                ; preds = %2
  %5 = getelementptr inbounds nuw i8, ptr %0, i64 792
  %6 = tail call noundef ptr @_ZNK4llvm18AArch64MCInstLower20GetGlobalValueSymbolEPKNS_11GlobalValueEj(ptr noundef nonnull align 8 dereferenceable(72) %5, ptr noundef nonnull %1, i32 noundef 0) #21
  %7 = getelementptr inbounds nuw i8, ptr %0, i64 72
  %8 = load ptr, ptr %7, align 8
  %9 = tail call noundef ptr @_ZN4llvm15MCSymbolRefExpr6createEPKNS_8MCSymbolENS0_11VariantKindERNS_9MCContextENS_5SMLocE(ptr noundef %6, i16 noundef zeroext 0, ptr noundef nonnull align 8 dereferenceable(2432) %8, ptr null) #21
  br label %12

10:                                               ; preds = %2
  %11 = tail call noundef ptr @_ZN4llvm10AsmPrinter13lowerConstantEPKNS_8ConstantE(ptr noundef nonnull align 8 dereferenceable(785) %0, ptr noundef nonnull %1) #21
  br label %12

12:                                               ; preds = %10, %4
  %.0 = phi ptr [ %9, %4 ], [ %11, %10 ]
  ret ptr %.0
}